; Function Attrs: mustprogress noreturn uwtable
define void @_ZN2cv6fontQtERKNSt7__cxx1112basic_stringIcSt11char_traitsIcESaIcEEEiNS_7Scalar_IdEEiii(ptr dead_on_unwind noalias nocapture readnone sret(%"struct.cv::QtFont") align 8 %0, ptr nocapture noundef nonnull readnone align 8 dereferenceable(32) %1, i32 noundef %2, ptr nocapture noundef readnone %3, i32 noundef %4, i32 noundef %5, i32 noundef %6) local_unnamed_addr #9 personality ptr @__gxx_personality_v0 {
  %8 = alloca %"class.std::__cxx11::basic_string", align 8
  %9 = alloca %"class.std::allocator", align 1
  call void @_ZNSaIcEC1Ev(ptr noundef nonnull align 1 dereferenceable(1) %9) #20
  invoke void @_ZNSt7__cxx1112basic_stringIcSt11char_traitsIcESaIcEEC1EPKcRKS3_(ptr noundef nonnull align 8 dereferenceable(32) %8, ptr noundef nonnull @.str.46, ptr noundef nonnull align 1 dereferenceable(1) %9)
          to label %10 unwind label %12

10:                                               ; preds = %7
  invoke void @_ZN2cv5errorEiRKNSt7__cxx1112basic_stringIcSt11char_traitsIcESaIcEEEPKcS9_i(i32 noundef -213, ptr noundef nonnull align 8 dereferenceable(32) %8, ptr noundef nonnull @__func__._ZN2cv6fontQtERKNSt7__cxx1112basic_stringIcSt11char_traitsIcESaIcEEEiNS_7Scalar_IdEEiii, ptr noundef nonnull @.str.1, i32 noundef 1208) #22
          to label %11 unwind label %14

11:                                               ; preds = %10
  unreachable

12:                                               ; preds = %7
  %13 = landingpad { ptr, i32 }
          cleanup
  br label %16

14:                                               ; preds = %10
  %15 = landingpad { ptr, i32 }
          cleanup
  call void @_ZNSt7__cxx1112basic_stringIcSt11char_traitsIcESaIcEED1Ev(ptr noundef nonnull align 8 dereferenceable(32) %8) #20
  br label %16

16:                                               ; preds = %14, %12
  %.pn = phi { ptr, i32 } [ %15, %14 ], [ %13, %12 ]
  call void @_ZNSaIcED1Ev(ptr noundef nonnull align 1 dereferenceable(1) %9) #20
  resume { ptr, i32 } %.pn
}